; Function Attrs: inlinehint nounwind sspstrong uwtable
define internal fastcc i64 @nucomp_s_new_internal(i64 noundef %0, i64 noundef %1, i64 noundef %2) unnamed_addr #3 {
  %4 = tail call align 8 ptr @llvm.threadlocal.address.p0(ptr align 8 @ruby_current_ec)
  %5 = load ptr, ptr %4, align 8, !tbaa !27
  %6 = tail call i64 @rb_wb_protected_newobj_of(ptr noundef %5, i64 noundef %0, i64 noundef 14, i64 noundef 32) #17
  %7 = inttoptr i64 %6 to ptr
  %8 = getelementptr inbounds nuw i8, ptr %7, i64 16
  store i64 %1, ptr %8, align 8, !tbaa !11
  %9 = icmp eq i64 %1, 0
  %10 = and i64 %1, 7
  %11 = icmp ne i64 %10, 0
  %12 = or i1 %9, %11
  br i1 %12, label %rb_obj_write.exit, label %13

13:                                               ; preds = %3
  tail call void @rb_gc_writebarrier(i64 noundef %6, i64 noundef %1) #17
  br label %rb_obj_write.exit

rb_obj_write.exit:                                ; preds = %3, %13
  %14 = getelementptr inbounds nuw i8, ptr %7, i64 24
  store i64 %2, ptr %14, align 8, !tbaa !11
  %15 = icmp eq i64 %2, 0
  %16 = and i64 %2, 7
  %17 = icmp ne i64 %16, 0
  %18 = or i1 %15, %17
  br i1 %18, label %rb_obj_write.exit8, label %19

19:                                               ; preds = %rb_obj_write.exit
  tail call void @rb_gc_writebarrier(i64 noundef %6, i64 noundef %2) #17
  br label %rb_obj_write.exit8

rb_obj_write.exit8:                               ; preds = %rb_obj_write.exit, %19
  tail call void @rb_obj_freeze_inline(i64 noundef %6) #17
  ret i64 %6
}